; Function Attrs: mustprogress nofree norecurse nosync nounwind willreturn memory(argmem: write) uwtable
define internal noundef zeroext i1 @_ZNSt17_Function_handlerIFNSt7__cxx1112basic_stringIcSt11char_traitsIcESaIcEEEP28cmGeneratorExpressionContextPK26GeneratorExpressionContentRN12_GLOBAL__N_15RangeISt6vectorIS5_SaIS5_EEEEEZNK8PathNode8EvaluateERKSF_S7_SA_P31cmGeneratorExpressionDAGCheckerEUlS7_SA_SH_E15_E10_M_managerERSt9_Any_dataRKSQ_St18_Manager_operation(ptr nocapture noundef nonnull writeonly align 8 dereferenceable(16) %0, ptr noundef nonnull align 8 dereferenceable(16) %1, i32 noundef %2) #14 align 2 personality ptr @__gxx_personality_v0 {
  switch i32 %2, label %_ZNSt14_Function_base13_Base_managerIZNK8PathNode8EvaluateERKSt6vectorINSt7__cxx1112basic_stringIcSt11char_traitsIcESaIcEEESaIS8_EEP28cmGeneratorExpressionContextPK26GeneratorExpressionContentP31cmGeneratorExpressionDAGCheckerEUlSE_SH_RN12_GLOBAL__N_15RangeISA_EEE15_E10_M_managerERSt9_Any_dataRKSQ_St18_Manager_operation.exit [
    i32 0, label %_ZNSt14_Function_base13_Base_managerIZNK8PathNode8EvaluateERKSt6vectorINSt7__cxx1112basic_stringIcSt11char_traitsIcESaIcEEESaIS8_EEP28cmGeneratorExpressionContextPK26GeneratorExpressionContentP31cmGeneratorExpressionDAGCheckerEUlSE_SH_RN12_GLOBAL__N_15RangeISA_EEE15_E10_M_managerERSt9_Any_dataRKSQ_St18_Manager_operation.exit.sink.split
    i32 1, label %4
  ]

4:                                                ; preds = %3
  br label %_ZNSt14_Function_base13_Base_managerIZNK8PathNode8EvaluateERKSt6vectorINSt7__cxx1112basic_stringIcSt11char_traitsIcESaIcEEESaIS8_EEP28cmGeneratorExpressionContextPK26GeneratorExpressionContentP31cmGeneratorExpressionDAGCheckerEUlSE_SH_RN12_GLOBAL__N_15RangeISA_EEE15_E10_M_managerERSt9_Any_dataRKSQ_St18_Manager_operation.exit.sink.split

_ZNSt14_Function_base13_Base_managerIZNK8PathNode8EvaluateERKSt6vectorINSt7__cxx1112basic_stringIcSt11char_traitsIcESaIcEEESaIS8_EEP28cmGeneratorExpressionContextPK26GeneratorExpressionContentP31cmGeneratorExpressionDAGCheckerEUlSE_SH_RN12_GLOBAL__N_15RangeISA_EEE15_E10_M_managerERSt9_Any_dataRKSQ_St18_Manager_operation.exit.sink.split: ; preds = %3, %4
  %.sink = phi ptr [ %1, %4 ], [ @_ZTIZNK8PathNode8EvaluateERKSt6vectorINSt7__cxx1112basic_stringIcSt11char_traitsIcESaIcEEESaIS6_EEP28cmGeneratorExpressionContextPK26GeneratorExpressionContentP31cmGeneratorExpressionDAGCheckerEUlSC_SF_RN12_GLOBAL__N_15RangeIS8_EEE15_, %3 ]
  store ptr %.sink, ptr %0, align 8
  br label %_ZNSt14_Function_base13_Base_managerIZNK8PathNode8EvaluateERKSt6vectorINSt7__cxx1112basic_stringIcSt11char_traitsIcESaIcEEESaIS8_EEP28cmGeneratorExpressionContextPK26GeneratorExpressionContentP31cmGeneratorExpressionDAGCheckerEUlSE_SH_RN12_GLOBAL__N_15RangeISA_EEE15_E10_M_managerERSt9_Any_dataRKSQ_St18_Manager_operation.exit

_ZNSt14_Function_base13_Base_managerIZNK8PathNode8EvaluateERKSt6vectorINSt7__cxx1112basic_stringIcSt11char_traitsIcESaIcEEESaIS8_EEP28cmGeneratorExpressionContextPK26GeneratorExpressionContentP31cmGeneratorExpressionDAGCheckerEUlSE_SH_RN12_GLOBAL__N_15RangeISA_EEE15_E10_M_managerERSt9_Any_dataRKSQ_St18_Manager_operation.exit: ; preds = %_ZNSt14_Function_base13_Base_managerIZNK8PathNode8EvaluateERKSt6vectorINSt7__cxx1112basic_stringIcSt11char_traitsIcESaIcEEESaIS8_EEP28cmGeneratorExpressionContextPK26GeneratorExpressionContentP31cmGeneratorExpressionDAGCheckerEUlSE_SH_RN12_GLOBAL__N_15RangeISA_EEE15_E10_M_managerERSt9_Any_dataRKSQ_St18_Manager_operation.exit.sink.split, %3
  ret i1 false
}